target datalayout = "e-m:e-p270:32:32-p271:32:32-p272:64:64-i64:64-f80:128-n8:16:32:64-S128"
target triple = "x86_64-pc-linux-gnu"

@.str = private unnamed_addr constant [6 x i8] c"%d %s\00", align 1
@.str.1 = private unnamed_addr constant [3 x i8] c"NO\00", align 1
@.str.2 = private unnamed_addr constant [4 x i8] c"%d\0A\00", align 1
@.str.3 = private unnamed_addr constant [4 x i8] c"%s\0A\00", align 1

; Function Attrs: noinline nounwind uwtable
define dso_local void @main() #0 {
  %1 = alloca [1000 x [10 x i8]], align 16
  %2 = alloca [500 x i8], align 16
  %3 = alloca i8*, align 8
  %4 = alloca i32, align 4
  %5 = alloca [1000 x i32], align 16
  %6 = alloca i32, align 4
  %7 = alloca i32, align 4
  %8 = alloca i32, align 4
  %9 = alloca i32, align 4
  %10 = alloca i32, align 4
  %11 = getelementptr inbounds [500 x i8], [500 x i8]* %2, i64 0, i64 0
  %12 = call i32 (i8*, ...) @__isoc99_scanf(i8* getelementptr inbounds ([6 x i8], [6 x i8]* @.str, i64 0, i64 0), i32* %4, i8* %11)
  %13 = getelementptr inbounds [500 x i8], [500 x i8]* %2, i64 0, i64 0
  %14 = call i64 @strlen(i8* %13) #4
  %15 = trunc i64 %14 to i32
  store i32 %15, i32* %8, align 4
  %16 = getelementptr inbounds [500 x i8], [500 x i8]* %2, i64 0, i64 0
  store i8* %16, i8** %3, align 8
  store i32 0, i32* %6, align 4
  br label %17

17:                                               ; preds = %24, %0
  %18 = load i32, i32* %6, align 4
  %19 = icmp slt i32 %18, 100
  br i1 %19, label %20, label %27

20:                                               ; preds = %17
  %21 = load i32, i32* %6, align 4
  %22 = sext i32 %21 to i64
  %23 = getelementptr inbounds [1000 x i32], [1000 x i32]* %5, i64 0, i64 %22
  store i32 1, i32* %23, align 4
  br label %24

24:                                               ; preds = %20
  %25 = load i32, i32* %6, align 4
  %26 = add nsw i32 %25, 1
  store i32 %26, i32* %6, align 4
  br label %17

27:                                               ; preds = %17
  store i32 0, i32* %6, align 4
  br label %28

28:                                               ; preds = %54, %27
  %29 = load i32, i32* %6, align 4
  %30 = load i32, i32* %8, align 4
  %31 = load i32, i32* %4, align 4
  %32 = sub nsw i32 %30, %31
  %33 = add nsw i32 %32, 1
  %34 = icmp slt i32 %29, %33
  br i1 %34, label %35, label %57

35:                                               ; preds = %28
  %36 = load i32, i32* %6, align 4
  store i32 %36, i32* %9, align 4
  %37 = load i32, i32* %6, align 4
  %38 = sext i32 %37 to i64
  %39 = getelementptr inbounds [1000 x [10 x i8]], [1000 x [10 x i8]]* %1, i64 0, i64 %38
  %40 = getelementptr inbounds [10 x i8], [10 x i8]* %39, i64 0, i64 0
  %41 = load i8*, i8** %3, align 8
  %42 = load i32, i32* %9, align 4
  %43 = sext i32 %42 to i64
  %44 = getelementptr inbounds i8, i8* %41, i64 %43
  %45 = load i32, i32* %4, align 4
  %46 = sext i32 %45 to i64
  %47 = call i8* @strncpy(i8* %40, i8* %44, i64 %46) #5
  %48 = load i32, i32* %6, align 4
  %49 = sext i32 %48 to i64
  %50 = getelementptr inbounds [1000 x [10 x i8]], [1000 x [10 x i8]]* %1, i64 0, i64 %49
  %51 = load i32, i32* %4, align 4
  %52 = sext i32 %51 to i64
  %53 = getelementptr inbounds [10 x i8], [10 x i8]* %50, i64 0, i64 %52
  store i8 0, i8* %53, align 1
  br label %54

54:                                               ; preds = %35
  %55 = load i32, i32* %6, align 4
  %56 = add nsw i32 %55, 1
  store i32 %56, i32* %6, align 4
  br label %28

57:                                               ; preds = %28
  store i32 0, i32* %6, align 4
  br label %58

58:                                               ; preds = %110, %57
  %59 = load i32, i32* %6, align 4
  %60 = load i32, i32* %8, align 4
  %61 = load i32, i32* %4, align 4
  %62 = sub nsw i32 %60, %61
  %63 = add nsw i32 %62, 1
  %64 = icmp slt i32 %59, %63
  br i1 %64, label %65, label %113

65:                                               ; preds = %58
  %66 = load i32, i32* %6, align 4
  %67 = sext i32 %66 to i64
  %68 = getelementptr inbounds [1000 x [10 x i8]], [1000 x [10 x i8]]* %1, i64 0, i64 %67
  %69 = getelementptr inbounds [10 x i8], [10 x i8]* %68, i64 0, i64 0
  %70 = load i8, i8* %69, align 2
  %71 = sext i8 %70 to i32
  %72 = icmp eq i32 %71, 42
  br i1 %72, label %73, label %74

73:                                               ; preds = %65
  br label %110

74:                                               ; preds = %65
  %75 = load i32, i32* %6, align 4
  %76 = add nsw i32 %75, 1
  store i32 %76, i32* %7, align 4
  br label %77

77:                                               ; preds = %106, %74
  %78 = load i32, i32* %7, align 4
  %79 = load i32, i32* %8, align 4
  %80 = load i32, i32* %4, align 4
  %81 = sub nsw i32 %79, %80
  %82 = add nsw i32 %81, 1
  %83 = icmp slt i32 %78, %82
  br i1 %83, label %84, label %109

84:                                               ; preds = %77
  %85 = load i32, i32* %6, align 4
  %86 = sext i32 %85 to i64
  %87 = getelementptr inbounds [1000 x [10 x i8]], [1000 x [10 x i8]]* %1, i64 0, i64 %86
  %88 = getelementptr inbounds [10 x i8], [10 x i8]* %87, i64 0, i64 0
  %89 = load i32, i32* %7, align 4
  %90 = sext i32 %89 to i64
  %91 = getelementptr inbounds [1000 x [10 x i8]], [1000 x [10 x i8]]* %1, i64 0, i64 %90
  %92 = getelementptr inbounds [10 x i8], [10 x i8]* %91, i64 0, i64 0
  %93 = call i32 @strcmp(i8* %88, i8* %92) #4
  %94 = icmp eq i32 %93, 0
  br i1 %94, label %95, label %105

95:                                               ; preds = %84
  %96 = load i32, i32* %6, align 4
  %97 = sext i32 %96 to i64
  %98 = getelementptr inbounds [1000 x i32], [1000 x i32]* %5, i64 0, i64 %97
  %99 = load i32, i32* %98, align 4
  %100 = add nsw i32 %99, 1
  store i32 %100, i32* %98, align 4
  %101 = load i32, i32* %7, align 4
  %102 = sext i32 %101 to i64
  %103 = getelementptr inbounds [1000 x [10 x i8]], [1000 x [10 x i8]]* %1, i64 0, i64 %102
  %104 = getelementptr inbounds [10 x i8], [10 x i8]* %103, i64 0, i64 0
  store i8 42, i8* %104, align 2
  br label %105

105:                                              ; preds = %95, %84
  br label %106

106:                                              ; preds = %105
  %107 = load i32, i32* %7, align 4
  %108 = add nsw i32 %107, 1
  store i32 %108, i32* %7, align 4
  br label %77

109:                                              ; preds = %77
  br label %110

110:                                              ; preds = %109, %73
  %111 = load i32, i32* %6, align 4
  %112 = add nsw i32 %111, 1
  store i32 %112, i32* %6, align 4
  br label %58

113:                                              ; preds = %58
  store i32 1, i32* %10, align 4
  store i32 0, i32* %6, align 4
  br label %114

114:                                              ; preds = %134, %113
  %115 = load i32, i32* %6, align 4
  %116 = load i32, i32* %8, align 4
  %117 = load i32, i32* %4, align 4
  %118 = sub nsw i32 %116, %117
  %119 = add nsw i32 %118, 1
  %120 = icmp slt i32 %115, %119
  br i1 %120, label %121, label %137

121:                                              ; preds = %114
  %122 = load i32, i32* %10, align 4
  %123 = load i32, i32* %6, align 4
  %124 = sext i32 %123 to i64
  %125 = getelementptr inbounds [1000 x i32], [1000 x i32]* %5, i64 0, i64 %124
  %126 = load i32, i32* %125, align 4
  %127 = icmp slt i32 %122, %126
  br i1 %127, label %128, label %133

128:                                              ; preds = %121
  %129 = load i32, i32* %6, align 4
  %130 = sext i32 %129 to i64
  %131 = getelementptr inbounds [1000 x i32], [1000 x i32]* %5, i64 0, i64 %130
  %132 = load i32, i32* %131, align 4
  store i32 %132, i32* %10, align 4
  br label %133

133:                                              ; preds = %128, %121
  br label %134

134:                                              ; preds = %133
  %135 = load i32, i32* %6, align 4
  %136 = add nsw i32 %135, 1
  store i32 %136, i32* %6, align 4
  br label %114

137:                                              ; preds = %114
  %138 = load i32, i32* %10, align 4
  %139 = icmp eq i32 %138, 1
  br i1 %139, label %140, label %142

140:                                              ; preds = %137
  %141 = call i32 (i8*, ...) @printf(i8* getelementptr inbounds ([3 x i8], [3 x i8]* @.str.1, i64 0, i64 0))
  br label %169

142:                                              ; preds = %137
  %143 = load i32, i32* %10, align 4
  %144 = call i32 (i8*, ...) @printf(i8* getelementptr inbounds ([4 x i8], [4 x i8]* @.str.2, i64 0, i64 0), i32 %143)
  store i32 0, i32* %6, align 4
  br label %145

145:                                              ; preds = %165, %142
  %146 = load i32, i32* %6, align 4
  %147 = load i32, i32* %8, align 4
  %148 = load i32, i32* %4, align 4
  %149 = sub nsw i32 %147, %148
  %150 = icmp slt i32 %146, %149
  br i1 %150, label %151, label %168

151:                                              ; preds = %145
  %152 = load i32, i32* %6, align 4
  %153 = sext i32 %152 to i64
  %154 = getelementptr inbounds [1000 x i32], [1000 x i32]* %5, i64 0, i64 %153
  %155 = load i32, i32* %154, align 4
  %156 = load i32, i32* %10, align 4
  %157 = icmp eq i32 %155, %156
  br i1 %157, label %158, label %164

158:                                              ; preds = %151
  %159 = load i32, i32* %6, align 4
  %160 = sext i32 %159 to i64
  %161 = getelementptr inbounds [1000 x [10 x i8]], [1000 x [10 x i8]]* %1, i64 0, i64 %160
  %162 = getelementptr inbounds [10 x i8], [10 x i8]* %161, i64 0, i64 0
  %163 = call i32 (i8*, ...) @printf(i8* getelementptr inbounds ([4 x i8], [4 x i8]* @.str.3, i64 0, i64 0), i8* %162)
  br label %164

164:                                              ; preds = %158, %151
  br label %165

165:                                              ; preds = %164
  %166 = load i32, i32* %6, align 4
  %167 = add nsw i32 %166, 1
  store i32 %167, i32* %6, align 4
  br label %145

168:                                              ; preds = %145
  br label %169

169:                                              ; preds = %168, %140
  ret void
}